target datalayout = "e-m:e-p270:32:32-p271:32:32-p272:64:64-i64:64-i128:128-f80:128-n8:16:32:64-S128"
target triple = "x86_64-pc-linux-gnu"

%"struct.dmg_fp::Bigint" = type { ptr, i32, i32, i32, i32, [1 x i32] }

@_ZN6dmg_fpL11dtoa_resultE = internal global ptr null, align 8
@_ZN6dmg_fpL8freelistE = internal global [8 x ptr] zeroinitializer, align 16

; Function Attrs: mustprogress nounwind uwtable
define internal void @_ZN6dmg_fpL5BfreeEPNS_6BigintE(ptr noundef %0) #2 {
  %2 = alloca ptr, align 8
  store ptr %0, ptr %2, align 8, !tbaa !30
  %3 = load ptr, ptr %2, align 8, !tbaa !30
  %4 = icmp ne ptr %3, null
  br i1 %4, label %5, label %28

5:                                                ; preds = %1
  %6 = load ptr, ptr %2, align 8, !tbaa !30
  %7 = getelementptr inbounds nuw %"struct.dmg_fp::Bigint", ptr %6, i32 0, i32 1
  %8 = load i32, ptr %7, align 8, !tbaa !40
  %9 = icmp sgt i32 %8, 7
  br i1 %9, label %10, label %12

10:                                               ; preds = %5
  %11 = load ptr, ptr %2, align 8, !tbaa !30
  call void @free(ptr noundef %11) #9
  br label %27

12:                                               ; preds = %5
  %13 = load ptr, ptr %2, align 8, !tbaa !30
  %14 = getelementptr inbounds nuw %"struct.dmg_fp::Bigint", ptr %13, i32 0, i32 1
  %15 = load i32, ptr %14, align 8, !tbaa !40
  %16 = sext i32 %15 to i64
  %17 = getelementptr inbounds [8 x ptr], ptr @_ZN6dmg_fpL8freelistE, i64 0, i64 %16
  %18 = load ptr, ptr %17, align 8, !tbaa !30
  %19 = load ptr, ptr %2, align 8, !tbaa !30
  %20 = getelementptr inbounds nuw %"struct.dmg_fp::Bigint", ptr %19, i32 0, i32 0
  store ptr %18, ptr %20, align 8, !tbaa !54
  %21 = load ptr, ptr %2, align 8, !tbaa !30
  %22 = load ptr, ptr %2, align 8, !tbaa !30
  %23 = getelementptr inbounds nuw %"struct.dmg_fp::Bigint", ptr %22, i32 0, i32 1
  %24 = load i32, ptr %23, align 8, !tbaa !40
  %25 = sext i32 %24 to i64
  %26 = getelementptr inbounds [8 x ptr], ptr @_ZN6dmg_fpL8freelistE, i64 0, i64 %25
  store ptr %21, ptr %26, align 8, !tbaa !30
  br label %27

27:                                               ; preds = %12, %10
  br label %28

28:                                               ; preds = %27, %1
  ret void
}

; Function Attrs: mustprogress uwtable
define void @_ZN6dmg_fp8freedtoaEPc(ptr noundef %0) #0 {
  %2 = alloca ptr, align 8
  %3 = alloca ptr, align 8
  store ptr %0, ptr %2, align 8, !tbaa !3
  call void @llvm.lifetime.start.p0(i64 8, ptr %3) #9
  %4 = load ptr, ptr %2, align 8, !tbaa !3
  %5 = getelementptr inbounds i32, ptr %4, i64 -1
  store ptr %5, ptr %3, align 8, !tbaa !30
  %6 = load ptr, ptr %3, align 8, !tbaa !30
  %7 = load i32, ptr %6, align 4, !tbaa !14
  %8 = load ptr, ptr %3, align 8, !tbaa !30
  %9 = getelementptr inbounds nuw %"struct.dmg_fp::Bigint", ptr %8, i32 0, i32 1
  store i32 %7, ptr %9, align 8, !tbaa !40
  %10 = shl i32 1, %7
  %11 = load ptr, ptr %3, align 8, !tbaa !30
  %12 = getelementptr inbounds nuw %"struct.dmg_fp::Bigint", ptr %11, i32 0, i32 2
  store i32 %10, ptr %12, align 4, !tbaa !57
  %13 = load ptr, ptr %3, align 8, !tbaa !30
  call void @_ZN6dmg_fpL5BfreeEPNS_6BigintE(ptr noundef %13)
  %14 = load ptr, ptr %2, align 8, !tbaa !3
  %15 = load ptr, ptr @_ZN6dmg_fpL11dtoa_resultE, align 8, !tbaa !3
  %16 = icmp eq ptr %14, %15
  br i1 %16, label %17, label %18

17:                                               ; preds = %1
  store ptr null, ptr @_ZN6dmg_fpL11dtoa_resultE, align 8, !tbaa !3
  br label %18

18:                                               ; preds = %17, %1
  call void @llvm.lifetime.end.p0(i64 8, ptr %3) #9
  ret void
}